target datalayout = "e-m:e-p270:32:32-p271:32:32-p272:64:64-i64:64-i128:128-f80:128-n8:16:32:64-S128"
target triple = "x86_64-pc-linux-gnu"

; Function Attrs: nounwind uwtable
define ptr @Abc_MergeSortCost(ptr noundef %0, i32 noundef %1) #0 {
  %3 = alloca ptr, align 8
  %4 = alloca ptr, align 8
  %5 = alloca i32, align 4
  %6 = alloca i32, align 4
  %7 = alloca ptr, align 8
  %8 = alloca ptr, align 8
  %9 = alloca ptr, align 8
  store ptr %0, ptr %4, align 8
  store i32 %1, ptr %5, align 4
  %10 = load i32, ptr %5, align 4
  %11 = sext i32 %10 to i64
  %12 = call noalias ptr @calloc(i64 noundef 4, i64 noundef %11) #10
  store ptr %12, ptr %7, align 8
  %13 = load i32, ptr %5, align 4
  %14 = icmp slt i32 %13, 2
  br i1 %14, label %15, label %17

15:                                               ; preds = %2
  %16 = load ptr, ptr %7, align 8
  store ptr %16, ptr %3, align 8
  br label %81

17:                                               ; preds = %2
  %18 = load i32, ptr %5, align 4
  %19 = sext i32 %18 to i64
  %20 = mul i64 8, %19
  %21 = call noalias ptr @malloc(i64 noundef %20) #8
  store ptr %21, ptr %8, align 8
  %22 = load i32, ptr %5, align 4
  %23 = sext i32 %22 to i64
  %24 = mul i64 8, %23
  %25 = call noalias ptr @malloc(i64 noundef %24) #8
  store ptr %25, ptr %9, align 8
  store i32 0, ptr %6, align 4
  br label %26

26:                                               ; preds = %48, %17
  %27 = load i32, ptr %6, align 4
  %28 = load i32, ptr %5, align 4
  %29 = icmp slt i32 %27, %28
  br i1 %29, label %30, label %51

30:                                               ; preds = %26
  %31 = load i32, ptr %6, align 4
  %32 = load ptr, ptr %8, align 8
  %33 = load i32, ptr %6, align 4
  %34 = mul nsw i32 2, %33
  %35 = sext i32 %34 to i64
  %36 = getelementptr inbounds i32, ptr %32, i64 %35
  store i32 %31, ptr %36, align 4
  %37 = load ptr, ptr %4, align 8
  %38 = load i32, ptr %6, align 4
  %39 = sext i32 %38 to i64
  %40 = getelementptr inbounds i32, ptr %37, i64 %39
  %41 = load i32, ptr %40, align 4
  %42 = load ptr, ptr %8, align 8
  %43 = load i32, ptr %6, align 4
  %44 = mul nsw i32 2, %43
  %45 = add nsw i32 %44, 1
  %46 = sext i32 %45 to i64
  %47 = getelementptr inbounds i32, ptr %42, i64 %46
  store i32 %41, ptr %47, align 4
  br label %48

48:                                               ; preds = %30
  %49 = load i32, ptr %6, align 4
  %50 = add nsw i32 %49, 1
  store i32 %50, ptr %6, align 4
  br label %26, !llvm.loop !25

51:                                               ; preds = %26
  %52 = load ptr, ptr %8, align 8
  %53 = load ptr, ptr %8, align 8
  %54 = load i32, ptr %5, align 4
  %55 = mul nsw i32 2, %54
  %56 = sext i32 %55 to i64
  %57 = getelementptr inbounds i32, ptr %53, i64 %56
  %58 = load ptr, ptr %9, align 8
  call void @Abc_MergeSortCost_rec(ptr noundef %52, ptr noundef %57, ptr noundef %58)
  store i32 0, ptr %6, align 4
  br label %59

59:                                               ; preds = %74, %51
  %60 = load i32, ptr %6, align 4
  %61 = load i32, ptr %5, align 4
  %62 = icmp slt i32 %60, %61
  br i1 %62, label %63, label %77

63:                                               ; preds = %59
  %64 = load ptr, ptr %8, align 8
  %65 = load i32, ptr %6, align 4
  %66 = mul nsw i32 2, %65
  %67 = sext i32 %66 to i64
  %68 = getelementptr inbounds i32, ptr %64, i64 %67
  %69 = load i32, ptr %68, align 4
  %70 = load ptr, ptr %7, align 8
  %71 = load i32, ptr %6, align 4
  %72 = sext i32 %71 to i64
  %73 = getelementptr inbounds i32, ptr %70, i64 %72
  store i32 %69, ptr %73, align 4
  br label %74

74:                                               ; preds = %63
  %75 = load i32, ptr %6, align 4
  %76 = add nsw i32 %75, 1
  store i32 %76, ptr %6, align 4
  br label %59, !llvm.loop !26

77:                                               ; preds = %59
  %78 = load ptr, ptr %9, align 8
  call void @free(ptr noundef %78) #9
  %79 = load ptr, ptr %8, align 8
  call void @free(ptr noundef %79) #9
  %80 = load ptr, ptr %7, align 8
  store ptr %80, ptr %3, align 8
  br label %81

81:                                               ; preds = %77, %15
  %82 = load ptr, ptr %3, align 8
  ret ptr %82
}