; Function Attrs: nounwind memory(readwrite, argmem: read) uwtable
define noalias noundef ptr @Abc_MergeSortCost(ptr noundef readonly captures(none) %0, i32 noundef %1) local_unnamed_addr #6 {
  %3 = sext i32 %1 to i64
  %4 = tail call noalias ptr @calloc(i64 noundef 4, i64 noundef %3) #21
  %5 = icmp slt i32 %1, 2
  br i1 %5, label %24, label %6

6:                                                ; preds = %2
  %7 = shl nuw nsw i64 %3, 3
  %8 = tail call noalias ptr @malloc(i64 noundef %7) #19
  %9 = tail call noalias ptr @malloc(i64 noundef %7) #19
  %wide.trip.count = zext nneg i32 %1 to i64
  br label %10

10:                                               ; preds = %6, %10
  %indvars.iv = phi i64 [ 0, %6 ], [ %indvars.iv.next, %10 ]
  %11 = shl nuw nsw i64 %indvars.iv, 1
  %12 = getelementptr inbounds nuw i32, ptr %8, i64 %11
  %13 = trunc nuw nsw i64 %indvars.iv to i32
  store i32 %13, ptr %12, align 4
  %14 = getelementptr inbounds nuw i32, ptr %0, i64 %indvars.iv
  %15 = load i32, ptr %14, align 4
  %16 = or disjoint i64 %11, 1
  %17 = getelementptr inbounds nuw i32, ptr %8, i64 %16
  store i32 %15, ptr %17, align 4
  %indvars.iv.next = add nuw nsw i64 %indvars.iv, 1
  %exitcond.not = icmp eq i64 %indvars.iv.next, %wide.trip.count
  br i1 %exitcond.not, label %.lr.ph.preheader, label %10, !llvm.loop !25

.lr.ph.preheader:                                 ; preds = %10
  %18 = shl nuw nsw i32 %1, 1
  %19 = zext nneg i32 %18 to i64
  %20 = getelementptr inbounds nuw i32, ptr %8, i64 %19
  tail call void @Abc_MergeSortCost_rec(ptr noundef nonnull %8, ptr noundef nonnull %20, ptr noundef %9)
  br label %.lr.ph

.lr.ph:                                           ; preds = %.lr.ph.preheader, %.lr.ph
  %indvars.iv33 = phi i64 [ 0, %.lr.ph.preheader ], [ %indvars.iv.next34, %.lr.ph ]
  %.idx = shl nuw nsw i64 %indvars.iv33, 3
  %21 = getelementptr inbounds nuw i8, ptr %8, i64 %.idx
  %22 = load i32, ptr %21, align 4
  %23 = getelementptr inbounds nuw i32, ptr %4, i64 %indvars.iv33
  store i32 %22, ptr %23, align 4
  %indvars.iv.next34 = add nuw nsw i64 %indvars.iv33, 1
  %exitcond37.not = icmp eq i64 %indvars.iv.next34, %wide.trip.count
  br i1 %exitcond37.not, label %._crit_edge, label %.lr.ph, !llvm.loop !26

._crit_edge:                                      ; preds = %.lr.ph
  tail call void @free(ptr noundef %9) #20
  tail call void @free(ptr noundef nonnull %8) #20
  br label %24

24:                                               ; preds = %2, %._crit_edge
  ret ptr %4
}